target datalayout = "e-m:e-p270:32:32-p271:32:32-p272:64:64-i64:64-i128:128-f80:128-n8:16:32:64-S128"
target triple = "x86_64-pc-linux-gnu"

%"class.llvm::InlineAsm" = type <{ %"class.llvm::Value", %"class.std::__cxx11::basic_string", %"class.std::__cxx11::basic_string", ptr, i8, i8, [2 x i8], i32, i8, [7 x i8] }>
%"class.llvm::Value" = type { i8, i8, i16, i32, ptr, ptr }
%"class.std::__cxx11::basic_string" = type { %"struct.std::__cxx11::basic_string<char>::_Alloc_hider", i64, %union.anon }
%"struct.std::__cxx11::basic_string<char>::_Alloc_hider" = type { ptr }
%union.anon = type { i64, [8 x i8] }

; Function Attrs: mustprogress nounwind uwtable
define linkonce_odr hidden noundef ptr @_ZN4llvm11PointerType9getUnqualEPNS_4TypeE(ptr noundef %0) #0 comdat align 2 {
  %2 = alloca ptr, align 8
  store ptr %0, ptr %2, align 8
  %3 = load ptr, ptr %2, align 8
  %4 = call noundef ptr @_ZN4llvm11PointerType3getEPNS_4TypeEj(ptr noundef %3, i32 noundef 0)
  ret ptr %4
}

; Function Attrs: mustprogress nounwind uwtable
define dso_local void @_ZN4llvm9InlineAsmC2EPNS_12FunctionTypeERKNSt7__cxx1112basic_stringIcSt11char_traitsIcESaIcEEESA_bbNS0_10AsmDialectEb(ptr noundef nonnull align 8 dereferenceable(112) %0, ptr noundef %1, ptr noundef nonnull align 8 dereferenceable(32) %2, ptr noundef nonnull align 8 dereferenceable(32) %3, i1 noundef zeroext %4, i1 noundef zeroext %5, i32 noundef %6, i1 noundef zeroext %7) unnamed_addr #0 align 2 {
  %9 = alloca ptr, align 8
  %10 = alloca ptr, align 8
  %11 = alloca ptr, align 8
  %12 = alloca ptr, align 8
  %13 = alloca i8, align 1
  %14 = alloca i8, align 1
  %15 = alloca i32, align 4
  %16 = alloca i8, align 1
  store ptr %0, ptr %9, align 8
  store ptr %1, ptr %10, align 8
  store ptr %2, ptr %11, align 8
  store ptr %3, ptr %12, align 8
  %17 = zext i1 %4 to i8
  store i8 %17, ptr %13, align 1
  %18 = zext i1 %5 to i8
  store i8 %18, ptr %14, align 1
  store i32 %6, ptr %15, align 4
  %19 = zext i1 %7 to i8
  store i8 %19, ptr %16, align 1
  %20 = load ptr, ptr %9, align 8
  %21 = load ptr, ptr %10, align 8
  %22 = call noundef ptr @_ZN4llvm11PointerType9getUnqualEPNS_4TypeE(ptr noundef %21)
  call void @_ZN4llvm5ValueC2EPNS_4TypeEj(ptr noundef nonnull align 8 dereferenceable(24) %20, ptr noundef %22, i32 noundef 25)
  %23 = getelementptr inbounds nuw %"class.llvm::InlineAsm", ptr %20, i32 0, i32 1
  %24 = load ptr, ptr %11, align 8
  call void @_ZNSt7__cxx1112basic_stringIcSt11char_traitsIcESaIcEEC1ERKS4_(ptr noundef nonnull align 8 dereferenceable(32) %23, ptr noundef nonnull align 8 dereferenceable(32) %24)
  %25 = getelementptr inbounds nuw %"class.llvm::InlineAsm", ptr %20, i32 0, i32 2
  %26 = load ptr, ptr %12, align 8
  call void @_ZNSt7__cxx1112basic_stringIcSt11char_traitsIcESaIcEEC1ERKS4_(ptr noundef nonnull align 8 dereferenceable(32) %25, ptr noundef nonnull align 8 dereferenceable(32) %26)
  %27 = getelementptr inbounds nuw %"class.llvm::InlineAsm", ptr %20, i32 0, i32 3
  %28 = load ptr, ptr %10, align 8
  store ptr %28, ptr %27, align 8
  %29 = getelementptr inbounds nuw %"class.llvm::InlineAsm", ptr %20, i32 0, i32 4
  %30 = load i8, ptr %13, align 1
  %31 = trunc i8 %30 to i1
  %32 = zext i1 %31 to i8
  store i8 %32, ptr %29, align 8
  %33 = getelementptr inbounds nuw %"class.llvm::InlineAsm", ptr %20, i32 0, i32 5
  %34 = load i8, ptr %14, align 1
  %35 = trunc i8 %34 to i1
  %36 = zext i1 %35 to i8
  store i8 %36, ptr %33, align 1
  %37 = getelementptr inbounds nuw %"class.llvm::InlineAsm", ptr %20, i32 0, i32 7
  %38 = load i32, ptr %15, align 4
  store i32 %38, ptr %37, align 4
  %39 = getelementptr inbounds nuw %"class.llvm::InlineAsm", ptr %20, i32 0, i32 8
  %40 = load i8, ptr %16, align 1
  %41 = trunc i8 %40 to i1
  %42 = zext i1 %41 to i8
  store i8 %42, ptr %39, align 8
  ret void
}