; Function Attrs: mustprogress nounwind uwtable
define dso_local void @_ZN4llvm9InlineAsmC2EPNS_12FunctionTypeERKNSt7__cxx1112basic_stringIcSt11char_traitsIcESaIcEEESA_bbNS0_10AsmDialectEb(ptr noundef nonnull align 8 dereferenceable(112) %0, ptr noundef %1, ptr noundef nonnull align 8 dereferenceable(32) %2, ptr noundef nonnull align 8 dereferenceable(32) %3, i1 noundef zeroext %4, i1 noundef zeroext %5, i32 noundef %6, i1 noundef zeroext %7) unnamed_addr #0 align 2 {
  %9 = zext i1 %4 to i8
  %10 = zext i1 %5 to i8
  %11 = zext i1 %7 to i8
  %12 = tail call noundef ptr @_ZN4llvm11PointerType3getEPNS_4TypeEj(ptr noundef %1, i32 noundef 0) #17
  tail call void @_ZN4llvm5ValueC2EPNS_4TypeEj(ptr noundef nonnull align 8 dereferenceable(24) %0, ptr noundef %12, i32 noundef 25) #17
  %13 = getelementptr inbounds nuw i8, ptr %0, i64 24
  tail call void @_ZNSt7__cxx1112basic_stringIcSt11char_traitsIcESaIcEEC1ERKS4_(ptr noundef nonnull align 8 dereferenceable(32) %13, ptr noundef nonnull align 8 dereferenceable(32) %2) #17
  %14 = getelementptr inbounds nuw i8, ptr %0, i64 56
  tail call void @_ZNSt7__cxx1112basic_stringIcSt11char_traitsIcESaIcEEC1ERKS4_(ptr noundef nonnull align 8 dereferenceable(32) %14, ptr noundef nonnull align 8 dereferenceable(32) %3) #17
  %15 = getelementptr inbounds nuw i8, ptr %0, i64 88
  store ptr %1, ptr %15, align 8
  %16 = getelementptr inbounds nuw i8, ptr %0, i64 96
  store i8 %9, ptr %16, align 8
  %17 = getelementptr inbounds nuw i8, ptr %0, i64 97
  store i8 %10, ptr %17, align 1
  %18 = getelementptr inbounds nuw i8, ptr %0, i64 100
  store i32 %6, ptr %18, align 4
  %19 = getelementptr inbounds nuw i8, ptr %0, i64 104
  store i8 %11, ptr %19, align 8
  ret void
}